target datalayout = "e-m:e-p270:32:32-p271:32:32-p272:64:64-i64:64-i128:128-f80:128-n8:16:32:64-S128"
target triple = "x86_64-pc-linux-gnu"

%class.SavedSignalHandlers = type { [65 x ptr] }
%struct.__sigset_t = type { [16 x i64] }
%struct.sigaction = type { %union.anon.16, %struct.__sigset_t, i32, ptr }
%union.anon.16 = type { ptr }

@_ZL11vm_handlers = internal global %class.SavedSignalHandlers zeroinitializer, align 8
@_ZL16chained_handlers = internal global %class.SavedSignalHandlers zeroinitializer, align 8
@.str.20 = private unnamed_addr constant [8 x i8] c"UNKNOWN\00", align 1
@.str.21 = private unnamed_addr constant [6 x i8] c"SIG%d\00", align 1
@.str.23 = private unnamed_addr constant [7 x i8] c"%10s: \00", align 1
@.str.24 = private unnamed_addr constant [5 x i8] c", %s\00", align 1
@.str.25 = private unnamed_addr constant [8 x i8] c"blocked\00", align 1
@.str.26 = private unnamed_addr constant [10 x i8] c"unblocked\00", align 1
@_ZN7VMError21crash_handler_addressE = external global ptr, align 8
@.str.27 = private unnamed_addr constant [28 x i8] c"  *** Handler was modified!\00", align 1
@.str.28 = private unnamed_addr constant [17 x i8] c"  *** Expected: \00", align 1
@.str.29 = private unnamed_addr constant [15 x i8] c"  chained to: \00", align 1
@_ZL17libjsig_is_loaded = internal global i8 0, align 1
@_ZL17get_signal_action = internal global ptr null, align 8

; Function Attrs: mustprogress nounwind uwtable
define internal noundef i32 @_ZL22get_sanitized_sa_flagsPK9sigaction(ptr noundef %0) #1 {
  %2 = alloca ptr, align 8
  %3 = alloca i32, align 4
  %4 = alloca i32, align 4
  store ptr %0, ptr %2, align 8
  %5 = load ptr, ptr %2, align 8
  %6 = getelementptr inbounds %struct.sigaction, ptr %5, i32 0, i32 2
  %7 = load i32, ptr %6, align 8
  store i32 %7, ptr %3, align 4
  store i32 67108864, ptr %4, align 4
  %8 = load i32, ptr %3, align 4
  %9 = and i32 %8, -67108865
  store i32 %9, ptr %3, align 4
  %10 = load i32, ptr %3, align 4
  ret i32 %10
}

; Function Attrs: mustprogress nounwind uwtable
define linkonce_odr hidden noundef zeroext i1 @_ZNK19SavedSignalHandlers19check_signal_numberEi(ptr noundef nonnull align 8 dereferenceable(520) %0, i32 noundef %1) #1 comdat align 2 {
  %3 = alloca ptr, align 8
  %4 = alloca i32, align 4
  store ptr %0, ptr %3, align 8
  store i32 %1, ptr %4, align 4
  %5 = load i32, ptr %4, align 4
  %6 = icmp sgt i32 %5, 0
  br i1 %6, label %7, label %10

7:                                                ; preds = %2
  %8 = load i32, ptr %4, align 4
  %9 = icmp slt i32 %8, 65
  br label %10

10:                                               ; preds = %7, %2
  %11 = phi i1 [ false, %2 ], [ %9, %7 ]
  ret i1 %11
}

; Function Attrs: mustprogress nounwind uwtable
define internal noundef zeroext i1 @_ZL15is_valid_signali(i32 noundef %0) #1 {
  %2 = alloca i1, align 1
  %3 = alloca i32, align 4
  %4 = alloca %struct.__sigset_t, align 8
  store i32 %0, ptr %3, align 4
  %5 = call i32 @sigemptyset(ptr noundef %4) #2
  %6 = load i32, ptr %3, align 4
  %7 = call i32 @sigaddset(ptr noundef %4, i32 noundef %6) #2
  %8 = icmp eq i32 %7, -1
  br i1 %8, label %9, label %14

9:                                                ; preds = %1
  %10 = call ptr @__errno_location() #13
  %11 = load i32, ptr %10, align 4
  %12 = icmp eq i32 %11, 22
  br i1 %12, label %13, label %14

13:                                               ; preds = %9
  store i1 false, ptr %2, align 1
  br label %15

14:                                               ; preds = %9, %1
  store i1 true, ptr %2, align 1
  br label %15

15:                                               ; preds = %14, %13
  %16 = load i1, ptr %2, align 1
  ret i1 %16
}

; Function Attrs: mustprogress nounwind uwtable
define internal noundef ptr @_ZL25get_chained_signal_actioni(i32 noundef %0) #1 {
  %2 = alloca i32, align 4
  %3 = alloca ptr, align 8
  store i32 %0, ptr %2, align 4
  store ptr null, ptr %3, align 8
  %4 = load i8, ptr @_ZL17libjsig_is_loaded, align 1
  %5 = trunc i8 %4 to i1
  br i1 %5, label %6, label %10

6:                                                ; preds = %1
  %7 = load ptr, ptr @_ZL17get_signal_action, align 8
  %8 = load i32, ptr %2, align 4
  %9 = call noundef ptr %7(i32 noundef %8)
  store ptr %9, ptr %3, align 8
  br label %10

10:                                               ; preds = %6, %1
  %11 = load ptr, ptr %3, align 8
  %12 = icmp eq ptr %11, null
  br i1 %12, label %13, label %16

13:                                               ; preds = %10
  %14 = load i32, ptr %2, align 4
  %15 = call noundef ptr @_ZNK19SavedSignalHandlers3getEi(ptr noundef nonnull align 8 dereferenceable(520) @_ZL16chained_handlers, i32 noundef %14)
  store ptr %15, ptr %3, align 8
  br label %16

16:                                               ; preds = %13, %10
  %17 = load ptr, ptr %3, align 8
  ret ptr %17
}

; Function Attrs: mustprogress nounwind uwtable
define internal noundef zeroext i1 @_ZL17are_actions_equalPK9sigactionS1_(ptr noundef %0, ptr noundef %1) #1 {
  %3 = alloca ptr, align 8
  %4 = alloca ptr, align 8
  %5 = alloca ptr, align 8
  %6 = alloca ptr, align 8
  %7 = alloca i32, align 4
  %8 = alloca i32, align 4
  store ptr %0, ptr %3, align 8
  store ptr %1, ptr %4, align 8
  %9 = load ptr, ptr %3, align 8
  %10 = call noundef ptr @_ZL18get_signal_handlerPK9sigaction(ptr noundef %9)
  store ptr %10, ptr %5, align 8
  %11 = load ptr, ptr %4, align 8
  %12 = call noundef ptr @_ZL18get_signal_handlerPK9sigaction(ptr noundef %11)
  store ptr %12, ptr %6, align 8
  %13 = load ptr, ptr %3, align 8
  %14 = call noundef i32 @_ZL22get_sanitized_sa_flagsPK9sigaction(ptr noundef %13)
  store i32 %14, ptr %7, align 4
  %15 = load ptr, ptr %4, align 8
  %16 = call noundef i32 @_ZL22get_sanitized_sa_flagsPK9sigaction(ptr noundef %15)
  store i32 %16, ptr %8, align 4
  %17 = load ptr, ptr %5, align 8
  %18 = load ptr, ptr %6, align 8
  %19 = icmp eq ptr %17, %18
  br i1 %19, label %20, label %24

20:                                               ; preds = %2
  %21 = load i32, ptr %7, align 4
  %22 = load i32, ptr %8, align 4
  %23 = icmp eq i32 %21, %22
  br label %24

24:                                               ; preds = %20, %2
  %25 = phi i1 [ false, %2 ], [ %23, %20 ]
  ret i1 %25
}

; Function Attrs: mustprogress nounwind uwtable
define internal noundef ptr @_ZL18get_signal_handlerPK9sigaction(ptr noundef %0) #1 {
  %2 = alloca ptr, align 8
  %3 = alloca ptr, align 8
  %4 = alloca i8, align 1
  store ptr %0, ptr %3, align 8
  %5 = load ptr, ptr %3, align 8
  %6 = getelementptr inbounds %struct.sigaction, ptr %5, i32 0, i32 2
  %7 = load i32, ptr %6, align 8
  %8 = and i32 %7, 4
  %9 = icmp ne i32 %8, 0
  %10 = zext i1 %9 to i8
  store i8 %10, ptr %4, align 1
  %11 = load i8, ptr %4, align 1
  %12 = trunc i8 %11 to i1
  br i1 %12, label %13, label %19

13:                                               ; preds = %1
  %14 = load ptr, ptr %3, align 8
  %15 = getelementptr inbounds %struct.sigaction, ptr %14, i32 0, i32 0
  %16 = load ptr, ptr %15, align 8
  %17 = ptrtoint ptr %16 to i64
  %18 = inttoptr i64 %17 to ptr
  store ptr %18, ptr %2, align 8
  br label %25

19:                                               ; preds = %1
  %20 = load ptr, ptr %3, align 8
  %21 = getelementptr inbounds %struct.sigaction, ptr %20, i32 0, i32 0
  %22 = load ptr, ptr %21, align 8
  %23 = ptrtoint ptr %22 to i64
  %24 = inttoptr i64 %23 to ptr
  store ptr %24, ptr %2, align 8
  br label %25

25:                                               ; preds = %19, %13
  %26 = load ptr, ptr %2, align 8
  ret ptr %26
}

; Function Attrs: mustprogress nounwind uwtable
define linkonce_odr hidden noundef ptr @_ZNK19SavedSignalHandlers3getEi(ptr noundef nonnull align 8 dereferenceable(520) %0, i32 noundef %1) #1 comdat align 2 {
  %3 = alloca ptr, align 8
  %4 = alloca ptr, align 8
  %5 = alloca i32, align 4
  store ptr %0, ptr %4, align 8
  store i32 %1, ptr %5, align 4
  %6 = load ptr, ptr %4, align 8
  %7 = load i32, ptr %5, align 4
  %8 = call noundef zeroext i1 @_ZNK19SavedSignalHandlers19check_signal_numberEi(ptr noundef nonnull align 8 dereferenceable(520) %6, i32 noundef %7)
  br i1 %8, label %9, label %15

9:                                                ; preds = %2
  %10 = getelementptr inbounds %class.SavedSignalHandlers, ptr %6, i32 0, i32 0
  %11 = load i32, ptr %5, align 4
  %12 = sext i32 %11 to i64
  %13 = getelementptr inbounds [65 x ptr], ptr %10, i64 0, i64 %12
  %14 = load ptr, ptr %13, align 8
  store ptr %14, ptr %3, align 8
  br label %16

15:                                               ; preds = %2
  store ptr null, ptr %3, align 8
  br label %16

16:                                               ; preds = %15, %9
  %17 = load ptr, ptr %3, align 8
  ret ptr %17
}

; Function Attrs: mustprogress nounwind uwtable
define hidden noundef ptr @_ZN2os14exception_nameEiPcm(i32 noundef %0, ptr noundef %1, i64 noundef %2) #1 align 2 {
  %4 = alloca ptr, align 8
  %5 = alloca i32, align 4
  %6 = alloca ptr, align 8
  %7 = alloca i64, align 8
  %8 = alloca ptr, align 8
  store i32 %0, ptr %5, align 4
  store ptr %1, ptr %6, align 8
  store i64 %2, ptr %7, align 8
  %9 = load i32, ptr %5, align 4
  %10 = call noundef zeroext i1 @_ZL15is_valid_signali(i32 noundef %9)
  br i1 %10, label %12, label %11

11:                                               ; preds = %3
  store ptr null, ptr %4, align 8
  br label %27

12:                                               ; preds = %3
  %13 = load i32, ptr %5, align 4
  %14 = load ptr, ptr %6, align 8
  %15 = load i64, ptr %7, align 8
  %16 = call noundef ptr @_ZL15get_signal_nameiPcm(i32 noundef %13, ptr noundef %14, i64 noundef %15)
  store ptr %16, ptr %8, align 8
  %17 = load ptr, ptr %8, align 8
  %18 = call i32 @strcmp(ptr noundef %17, ptr noundef @.str.20) #14
  %19 = icmp eq i32 %18, 0
  br i1 %19, label %20, label %25

20:                                               ; preds = %12
  %21 = load ptr, ptr %6, align 8
  %22 = load i64, ptr %7, align 8
  %23 = load i32, ptr %5, align 4
  %24 = call i32 (ptr, i64, ptr, ...) @jio_snprintf(ptr noundef %21, i64 noundef %22, ptr noundef @.str.21, i32 noundef %23)
  br label %25

25:                                               ; preds = %20, %12
  %26 = load ptr, ptr %6, align 8
  store ptr %26, ptr %4, align 8
  br label %27

27:                                               ; preds = %25, %11
  %28 = load ptr, ptr %4, align 8
  ret ptr %28
}

; Function Attrs: mustprogress nounwind uwtable
define hidden void @_ZN12PosixSignals20print_signal_handlerEP12outputStreamiPcm(ptr noundef %0, i32 noundef %1, ptr noundef %2, i64 noundef %3) #1 align 2 {
  %5 = alloca ptr, align 8
  %6 = alloca i32, align 4
  %7 = alloca ptr, align 8
  %8 = alloca i64, align 8
  %9 = alloca %struct.sigaction, align 8
  %10 = alloca %struct.__sigset_t, align 8
  %11 = alloca ptr, align 8
  %12 = alloca ptr, align 8
  %13 = alloca ptr, align 8
  store ptr %0, ptr %5, align 8
  store i32 %1, ptr %6, align 4
  store ptr %2, ptr %7, align 8
  store i64 %3, ptr %8, align 8
  %14 = load ptr, ptr %5, align 8
  %15 = load i32, ptr %6, align 4
  %16 = load ptr, ptr %7, align 8
  %17 = load i64, ptr %8, align 8
  %18 = call noundef ptr @_ZN2os14exception_nameEiPcm(i32 noundef %15, ptr noundef %16, i64 noundef %17)
  call void (ptr, ptr, ...) @_ZN12outputStream5printEPKcz(ptr noundef nonnull align 8 dereferenceable(56) %14, ptr noundef @.str.23, ptr noundef %18)
  %19 = load i32, ptr %6, align 4
  %20 = call i32 @sigaction(i32 noundef %19, ptr noundef null, ptr noundef %9) #2
  %21 = load ptr, ptr %5, align 8
  %22 = load ptr, ptr %7, align 8
  %23 = load i64, ptr %8, align 8
  call void @_ZL27print_single_signal_handlerP12outputStreamPK9sigactionPcm(ptr noundef %21, ptr noundef %9, ptr noundef %22, i64 noundef %23)
  %24 = call i32 @pthread_sigmask(i32 noundef 0, ptr noundef null, ptr noundef %10) #2
  %25 = icmp eq i32 %24, 0
  br i1 %25, label %26, label %32

26:                                               ; preds = %4
  %27 = load ptr, ptr %5, align 8
  %28 = load i32, ptr %6, align 4
  %29 = call i32 @sigismember(ptr noundef %10, i32 noundef %28) #2
  %30 = icmp ne i32 %29, 0
  %31 = select i1 %30, ptr @.str.25, ptr @.str.26
  call void (ptr, ptr, ...) @_ZN12outputStream5printEPKcz(ptr noundef nonnull align 8 dereferenceable(56) %27, ptr noundef @.str.24, ptr noundef %31)
  br label %32

32:                                               ; preds = %26, %4
  %33 = load ptr, ptr %5, align 8
  call void @_ZN12outputStream2crEv(ptr noundef nonnull align 8 dereferenceable(56) %33)
  %34 = load i32, ptr %6, align 4
  %35 = call noundef ptr @_ZNK19SavedSignalHandlers3getEi(ptr noundef nonnull align 8 dereferenceable(520) @_ZL11vm_handlers, i32 noundef %34)
  store ptr %35, ptr %11, align 8
  %36 = load ptr, ptr %11, align 8
  %37 = icmp ne ptr %36, null
  br i1 %37, label %38, label %58

38:                                               ; preds = %32
  %39 = call noundef ptr @_ZL18get_signal_handlerPK9sigaction(ptr noundef %9)
  store ptr %39, ptr %12, align 8
  %40 = load ptr, ptr %12, align 8
  %41 = load ptr, ptr @_ZN7VMError21crash_handler_addressE, align 8
  %42 = ptrtoint ptr %41 to i64
  %43 = inttoptr i64 %42 to ptr
  %44 = icmp eq ptr %40, %43
  br i1 %44, label %57, label %45

45:                                               ; preds = %38
  %46 = load ptr, ptr %11, align 8
  %47 = call noundef zeroext i1 @_ZL17are_actions_equalPK9sigactionS1_(ptr noundef %9, ptr noundef %46)
  br i1 %47, label %56, label %48

48:                                               ; preds = %45
  %49 = load ptr, ptr %5, align 8
  call void (ptr, ptr, ...) @_ZN12outputStream8print_crEPKcz(ptr noundef nonnull align 8 dereferenceable(56) %49, ptr noundef @.str.27)
  %50 = load ptr, ptr %5, align 8
  call void (ptr, ptr, ...) @_ZN12outputStream5printEPKcz(ptr noundef nonnull align 8 dereferenceable(56) %50, ptr noundef @.str.28)
  %51 = load ptr, ptr %5, align 8
  %52 = load ptr, ptr %11, align 8
  %53 = load ptr, ptr %7, align 8
  %54 = load i64, ptr %8, align 8
  call void @_ZL27print_single_signal_handlerP12outputStreamPK9sigactionPcm(ptr noundef %51, ptr noundef %52, ptr noundef %53, i64 noundef %54)
  %55 = load ptr, ptr %5, align 8
  call void @_ZN12outputStream2crEv(ptr noundef nonnull align 8 dereferenceable(56) %55)
  br label %56

56:                                               ; preds = %48, %45
  br label %57

57:                                               ; preds = %56, %38
  br label %58

58:                                               ; preds = %57, %32
  %59 = load i32, ptr %6, align 4
  %60 = call noundef ptr @_ZL25get_chained_signal_actioni(i32 noundef %59)
  store ptr %60, ptr %13, align 8
  %61 = load ptr, ptr %13, align 8
  %62 = icmp ne ptr %61, null
  br i1 %62, label %63, label %69

63:                                               ; preds = %58
  %64 = load ptr, ptr %5, align 8
  call void (ptr, ptr, ...) @_ZN12outputStream5printEPKcz(ptr noundef nonnull align 8 dereferenceable(56) %64, ptr noundef @.str.29)
  %65 = load ptr, ptr %5, align 8
  %66 = load ptr, ptr %7, align 8
  %67 = load i64, ptr %8, align 8
  call void @_ZL27print_single_signal_handlerP12outputStreamPK9sigactionPcm(ptr noundef %65, ptr noundef %9, ptr noundef %66, i64 noundef %67)
  %68 = load ptr, ptr %5, align 8
  call void @_ZN12outputStream2crEv(ptr noundef nonnull align 8 dereferenceable(56) %68)
  br label %69

69:                                               ; preds = %63, %58
  ret void
}