; Function Attrs: mustprogress nounwind uwtable
define hidden void @_ZN12PosixSignals20print_signal_handlerEP12outputStreamiPcm(ptr noundef %0, i32 noundef %1, ptr noundef %2, i64 noundef %3) local_unnamed_addr #0 align 2 {
  %5 = alloca %struct.__sigset_t, align 8
  %6 = alloca %struct.sigaction, align 8
  %7 = alloca %struct.__sigset_t, align 8
  call void @llvm.lifetime.start.p0(i64 128, ptr nonnull %5)
  %8 = call i32 @sigemptyset(ptr noundef nonnull %5) #20
  %9 = call i32 @sigaddset(ptr noundef nonnull %5, i32 noundef %1) #20
  %10 = icmp eq i32 %9, -1
  br i1 %10, label %11, label %15

11:                                               ; preds = %4
  %12 = tail call ptr @__errno_location() #21
  %13 = load i32, ptr %12, align 4
  %14 = icmp eq i32 %13, 22
  br i1 %14, label %_ZL15is_valid_signali.exit.i, label %15

_ZL15is_valid_signali.exit.i:                     ; preds = %11
  call void @llvm.lifetime.end.p0(i64 128, ptr nonnull %5)
  br label %_ZN2os14exception_nameEiPcm.exit

15:                                               ; preds = %11, %4
  call void @llvm.lifetime.end.p0(i64 128, ptr nonnull %5)
  %16 = call fastcc noundef ptr @_ZL15get_signal_nameiPcm(i32 noundef %1, ptr noundef %2, i64 noundef %3)
  %17 = call i32 @strcmp(ptr noundef nonnull dereferenceable(1) %2, ptr noundef nonnull dereferenceable(8) @.str.20) #23
  %18 = icmp eq i32 %17, 0
  br i1 %18, label %19, label %_ZN2os14exception_nameEiPcm.exit

19:                                               ; preds = %15
  %20 = call i32 (ptr, i64, ptr, ...) @jio_snprintf(ptr noundef %2, i64 noundef %3, ptr noundef nonnull @.str.21, i32 noundef %1) #20
  br label %_ZN2os14exception_nameEiPcm.exit

_ZN2os14exception_nameEiPcm.exit:                 ; preds = %_ZL15is_valid_signali.exit.i, %15, %19
  %.0.i = phi ptr [ null, %_ZL15is_valid_signali.exit.i ], [ %2, %19 ], [ %2, %15 ]
  call void (ptr, ptr, ...) @_ZN12outputStream5printEPKcz(ptr noundef nonnull align 8 dereferenceable(56) %0, ptr noundef nonnull @.str.23, ptr noundef %.0.i) #20
  %21 = call i32 @sigaction(i32 noundef %1, ptr noundef null, ptr noundef nonnull %6) #20
  call fastcc void @_ZL27print_single_signal_handlerP12outputStreamPK9sigactionPcm(ptr noundef nonnull %0, ptr noundef nonnull %6, ptr noundef %2, i64 noundef %3)
  %22 = call i32 @pthread_sigmask(i32 noundef 0, ptr noundef null, ptr noundef nonnull %7) #20
  %23 = icmp eq i32 %22, 0
  br i1 %23, label %24, label %27

24:                                               ; preds = %_ZN2os14exception_nameEiPcm.exit
  %25 = call i32 @sigismember(ptr noundef nonnull %7, i32 noundef %1) #20
  %.not = icmp eq i32 %25, 0
  %26 = select i1 %.not, ptr @.str.26, ptr @.str.25
  call void (ptr, ptr, ...) @_ZN12outputStream5printEPKcz(ptr noundef nonnull align 8 dereferenceable(56) %0, ptr noundef nonnull @.str.24, ptr noundef nonnull %26) #20
  br label %27

27:                                               ; preds = %24, %_ZN2os14exception_nameEiPcm.exit
  call void @_ZN12outputStream2crEv(ptr noundef nonnull align 8 dereferenceable(56) %0) #20
  %28 = add i32 %1, -1
  %29 = icmp ult i32 %28, 64
  br i1 %29, label %_ZNK19SavedSignalHandlers3getEi.exit, label %_ZNK19SavedSignalHandlers3getEi.exit.thread

_ZNK19SavedSignalHandlers3getEi.exit:             ; preds = %27
  %30 = zext nneg i32 %1 to i64
  %31 = getelementptr inbounds [65 x ptr], ptr @_ZL11vm_handlers, i64 0, i64 %30
  %32 = load ptr, ptr %31, align 8
  %.not28 = icmp eq ptr %32, null
  br i1 %.not28, label %_ZNK19SavedSignalHandlers3getEi.exit.thread, label %33

33:                                               ; preds = %_ZNK19SavedSignalHandlers3getEi.exit
  %.val = load ptr, ptr %6, align 8
  %34 = load ptr, ptr @_ZN7VMError21crash_handler_addressE, align 8
  %35 = icmp eq ptr %.val, %34
  br i1 %35, label %_ZNK19SavedSignalHandlers3getEi.exit.thread, label %36

36:                                               ; preds = %33
  %37 = getelementptr inbounds i8, ptr %6, i64 136
  %.val31 = load i32, ptr %37, align 8
  %.val32 = load ptr, ptr %32, align 8
  %38 = getelementptr i8, ptr %32, i64 136
  %.val33 = load i32, ptr %38, align 8
  %39 = icmp eq ptr %.val, %.val32
  %40 = xor i32 %.val33, %.val31
  %41 = and i32 %40, -67108865
  %42 = icmp eq i32 %41, 0
  %43 = and i1 %39, %42
  br i1 %43, label %_ZNK19SavedSignalHandlers3getEi.exit.thread, label %44

44:                                               ; preds = %36
  call void (ptr, ptr, ...) @_ZN12outputStream8print_crEPKcz(ptr noundef nonnull align 8 dereferenceable(56) %0, ptr noundef nonnull @.str.27) #20
  call void (ptr, ptr, ...) @_ZN12outputStream5printEPKcz(ptr noundef nonnull align 8 dereferenceable(56) %0, ptr noundef nonnull @.str.28) #20
  call fastcc void @_ZL27print_single_signal_handlerP12outputStreamPK9sigactionPcm(ptr noundef nonnull %0, ptr noundef nonnull %32, ptr noundef %2, i64 noundef %3)
  call void @_ZN12outputStream2crEv(ptr noundef nonnull align 8 dereferenceable(56) %0) #20
  br label %_ZNK19SavedSignalHandlers3getEi.exit.thread

_ZNK19SavedSignalHandlers3getEi.exit.thread:      ; preds = %27, %33, %44, %36, %_ZNK19SavedSignalHandlers3getEi.exit
  %.b3.i = load i1, ptr @_ZL17libjsig_is_loaded, align 1
  br i1 %.b3.i, label %45, label %.thread.i

45:                                               ; preds = %_ZNK19SavedSignalHandlers3getEi.exit.thread
  %46 = load ptr, ptr @_ZL17get_signal_action, align 8
  %47 = call noundef ptr %46(i32 noundef %1) #20
  %48 = icmp eq ptr %47, null
  br i1 %48, label %.thread.i, label %_ZL25get_chained_signal_actioni.exit.thread39

.thread.i:                                        ; preds = %45, %_ZNK19SavedSignalHandlers3getEi.exit.thread
  br i1 %29, label %_ZL25get_chained_signal_actioni.exit, label %_ZL25get_chained_signal_actioni.exit.thread

_ZL25get_chained_signal_actioni.exit:             ; preds = %.thread.i
  %49 = zext nneg i32 %1 to i64
  %50 = getelementptr inbounds [65 x ptr], ptr @_ZL16chained_handlers, i64 0, i64 %49
  %51 = load ptr, ptr %50, align 8
  %.not29 = icmp eq ptr %51, null
  br i1 %.not29, label %_ZL25get_chained_signal_actioni.exit.thread, label %_ZL25get_chained_signal_actioni.exit.thread39

_ZL25get_chained_signal_actioni.exit.thread39:    ; preds = %45, %_ZL25get_chained_signal_actioni.exit
  call void (ptr, ptr, ...) @_ZN12outputStream5printEPKcz(ptr noundef nonnull align 8 dereferenceable(56) %0, ptr noundef nonnull @.str.29) #20
  call fastcc void @_ZL27print_single_signal_handlerP12outputStreamPK9sigactionPcm(ptr noundef nonnull %0, ptr noundef nonnull %6, ptr noundef %2, i64 noundef %3)
  call void @_ZN12outputStream2crEv(ptr noundef nonnull align 8 dereferenceable(56) %0) #20
  br label %_ZL25get_chained_signal_actioni.exit.thread

_ZL25get_chained_signal_actioni.exit.thread:      ; preds = %.thread.i, %_ZL25get_chained_signal_actioni.exit.thread39, %_ZL25get_chained_signal_actioni.exit
  ret void
}